; Function Attrs: nounwind sspstrong uwtable
define internal i64 @ossl_call_session_get_cb(i64 noundef %0) #0 {
  %2 = alloca i64, align 8
  store i64 %0, ptr %2, align 8, !tbaa !10
  %3 = icmp eq i64 %0, 0
  %4 = and i64 %0, 7
  %5 = icmp ne i64 %4, 0
  %6 = or i1 %3, %5
  br i1 %6, label %rbimpl_RB_TYPE_P_fastpath.exit.thread.i, label %7, !prof !17

7:                                                ; preds = %1
  %8 = inttoptr i64 %0 to ptr
  %9 = load i64, ptr %8, align 8, !tbaa !18
  %10 = and i64 %9, 31
  %11 = icmp eq i64 %10, 7
  br i1 %11, label %Check_Type.exit, label %rbimpl_RB_TYPE_P_fastpath.exit.thread.i, !prof !42

rbimpl_RB_TYPE_P_fastpath.exit.thread.i:          ; preds = %7, %1
  tail call void @rb_unexpected_type(i64 noundef %0, i32 noundef 7) #11
  unreachable

Check_Type.exit:                                  ; preds = %7
  %12 = tail call i64 @rb_ary_entry(i64 noundef %0, i64 noundef 0) #12
  %.pr.i = load i64, ptr @ossl_call_session_get_cb.rbimpl_id, align 8, !tbaa !10
  %.not4.i = icmp eq i64 %.pr.i, 0
  br i1 %.not4.i, label %.lr.ph.i, label %rbimpl_intern_const.exit

.lr.ph.i:                                         ; preds = %Check_Type.exit, %.lr.ph.i
  %13 = tail call i64 @rb_intern2(ptr noundef nonnull @.str.27, i64 noundef 14) #9
  store i64 %13, ptr @ossl_call_session_get_cb.rbimpl_id, align 8, !tbaa !10
  %.not.i = icmp eq i64 %13, 0
  br i1 %.not.i, label %.lr.ph.i, label %rbimpl_intern_const.exit, !llvm.loop !29

rbimpl_intern_const.exit:                         ; preds = %.lr.ph.i, %Check_Type.exit
  %.lcssa.i = phi i64 [ %.pr.i, %Check_Type.exit ], [ %13, %.lr.ph.i ]
  %14 = tail call i64 (i64, i64, i32, ...) @rb_funcall(i64 noundef %12, i64 noundef %.lcssa.i, i32 noundef 0) #9
  %15 = icmp eq i64 %14, 4
  br i1 %15, label %19, label %16

16:                                               ; preds = %rbimpl_intern_const.exit
  %17 = load i64, ptr @id_call, align 8, !tbaa !10
  %18 = call i64 @rb_funcallv(i64 noundef %14, i64 noundef %17, i32 noundef 1, ptr noundef nonnull %2) #9
  br label %19

19:                                               ; preds = %rbimpl_intern_const.exit, %16
  %.0 = phi i64 [ %18, %16 ], [ 4, %rbimpl_intern_const.exit ]
  ret i64 %.0
}